target datalayout = "e-m:e-p270:32:32-p271:32:32-p272:64:64-i64:64-i128:128-f80:128-n8:16:32:64-S128"
target triple = "x86_64-pc-linux-gnu"

%struct.ImRect = type { %struct.ImVec2, %struct.ImVec2 }
%struct.ImVec2 = type { float, float }
%struct.ImGuiTextBuffer = type { %struct.ImVector.28 }
%struct.ImVector.28 = type { i32, i32, ptr }
%struct.ImGuiTableInstanceData = type { i32, float, float, float, i32, i32 }
%struct.ImGuiTableColumn = type <{ i32, float, float, float, float, float, float, float, float, %struct.ImRect, i32, float, float, float, float, float, float, float, i16, i16, i16, i16, i16, i16, i16, i16, i16, i8, i8, i8, i8, i8, i8, i8, i8, i8, i8, i8, i8, i8, i8 }>
%struct.ImGuiTable = type <{ i32, i32, ptr, ptr, %struct.ImSpan, %struct.ImSpan.41, %struct.ImSpan.42, ptr, ptr, ptr, i32, i32, i32, i32, i32, i32, i16, i16, float, float, float, float, float, float, i32, i32, [2 x i32], i32, i32, float, float, float, float, float, float, float, float, float, float, float, float, float, float, float, float, float, %struct.ImRect, %struct.ImRect, %struct.ImRect, %struct.ImRect, %struct.ImRect, %struct.ImRect, %struct.ImRect, %struct.ImRect, %struct.ImRect, ptr, ptr, %struct.ImGuiTextBuffer, ptr, %struct.ImGuiTableInstanceData, %struct.ImVector.43, %struct.ImGuiTableColumnSortSpecs, [4 x i8], %struct.ImVector.44, %struct.ImGuiTableSortSpecs, i16, i16, i16, i16, i16, i16, i16, i16, i16, i16, i16, i16, i16, i16, i16, i16, i16, i16, i16, i16, i16, i16, i16, i16, i16, i16, i16, i8, i8, i8, i8, i8, i8, i8, i8, i8, i8, i8, i8, i8, i8, i8, i8, i8, i8, i8, i8, [6 x i8] }>
%struct.ImSpan = type { ptr, ptr }
%struct.ImSpan.41 = type { ptr, ptr }
%struct.ImSpan.42 = type { ptr, ptr }
%struct.ImVector.43 = type { i32, i32, ptr }
%struct.ImGuiTableColumnSortSpecs = type <{ i32, i16, i16, i8, [3 x i8] }>
%struct.ImVector.44 = type { i32, i32, ptr }
%struct.ImGuiTableSortSpecs = type <{ ptr, i32, i8, [3 x i8] }>

; Function Attrs: inlinehint mustprogress nounwind uwtable
define internal noundef zeroext i8 @_ZL32TableGetColumnAvailSortDirectionP16ImGuiTableColumni(ptr noundef %0, i32 noundef %1) #4 {
  %3 = alloca ptr, align 8
  %4 = alloca i32, align 4
  store ptr %0, ptr %3, align 8, !tbaa !259
  store i32 %1, ptr %4, align 4, !tbaa !4
  %5 = load ptr, ptr %3, align 8, !tbaa !259
  %6 = getelementptr inbounds nuw %struct.ImGuiTableColumn, ptr %5, i32 0, i32 39
  %7 = load i8, ptr %6, align 2, !tbaa !465
  %8 = zext i8 %7 to i32
  %9 = load i32, ptr %4, align 4, !tbaa !4
  %10 = shl i32 %9, 1
  %11 = ashr i32 %8, %10
  %12 = and i32 %11, 3
  %13 = trunc i32 %12 to i8
  ret i8 %13
}

; Function Attrs: mustprogress uwtable
define dso_local void @_ZN5ImGui27TableFixColumnSortDirectionEP10ImGuiTableP16ImGuiTableColumn(ptr noundef %0, ptr noundef %1) #0 {
  %3 = alloca ptr, align 8
  %4 = alloca ptr, align 8
  store ptr %0, ptr %3, align 8, !tbaa !166
  store ptr %1, ptr %4, align 8, !tbaa !259
  %5 = load ptr, ptr %4, align 8, !tbaa !259
  %6 = getelementptr inbounds nuw %struct.ImGuiTableColumn, ptr %5, i32 0, i32 23
  %7 = load i16, ptr %6, align 2, !tbaa !350
  %8 = sext i16 %7 to i32
  %9 = icmp eq i32 %8, -1
  br i1 %9, label %24, label %10

10:                                               ; preds = %2
  %11 = load ptr, ptr %4, align 8, !tbaa !259
  %12 = getelementptr inbounds nuw %struct.ImGuiTableColumn, ptr %11, i32 0, i32 38
  %13 = load i8, ptr %12, align 1
  %14 = lshr i8 %13, 4
  %15 = zext i8 %14 to i32
  %16 = load ptr, ptr %4, align 8, !tbaa !259
  %17 = getelementptr inbounds nuw %struct.ImGuiTableColumn, ptr %16, i32 0, i32 38
  %18 = load i8, ptr %17, align 1
  %19 = and i8 %18, 3
  %20 = zext i8 %19 to i32
  %21 = shl i32 1, %20
  %22 = and i32 %15, %21
  %23 = icmp ne i32 %22, 0
  br i1 %23, label %24, label %25

24:                                               ; preds = %10, %2
  br label %36

25:                                               ; preds = %10
  %26 = load ptr, ptr %4, align 8, !tbaa !259
  %27 = call noundef zeroext i8 @_ZL32TableGetColumnAvailSortDirectionP16ImGuiTableColumni(ptr noundef %26, i32 noundef 0)
  %28 = load ptr, ptr %4, align 8, !tbaa !259
  %29 = getelementptr inbounds nuw %struct.ImGuiTableColumn, ptr %28, i32 0, i32 38
  %30 = load i8, ptr %29, align 1
  %31 = and i8 %27, 3
  %32 = and i8 %30, -4
  %33 = or i8 %32, %31
  store i8 %33, ptr %29, align 1
  %34 = load ptr, ptr %3, align 8, !tbaa !166
  %35 = getelementptr inbounds nuw %struct.ImGuiTable, ptr %34, i32 0, i32 95
  store i8 1, ptr %35, align 1, !tbaa !267
  br label %36

36:                                               ; preds = %25, %24
  ret void
}

; Function Attrs: inlinehint mustprogress nounwind uwtable
define linkonce_odr dso_local noundef i32 @_ZNK6ImSpanI16ImGuiTableColumnE14index_from_ptrEPKS0_(ptr noundef nonnull align 8 dereferenceable(16) %0, ptr noundef %1) #4 comdat align 2 {
  %3 = alloca ptr, align 8
  %4 = alloca ptr, align 8
  %5 = alloca i64, align 8
  store ptr %0, ptr %3, align 8, !tbaa !335
  store ptr %1, ptr %4, align 8, !tbaa !259
  %6 = load ptr, ptr %3, align 8
  call void @llvm.lifetime.start.p0(i64 8, ptr %5) #8
  %7 = load ptr, ptr %4, align 8, !tbaa !259
  %8 = getelementptr inbounds nuw %struct.ImSpan, ptr %6, i32 0, i32 0
  %9 = load ptr, ptr %8, align 8, !tbaa !338
  %10 = ptrtoint ptr %7 to i64
  %11 = ptrtoint ptr %9 to i64
  %12 = sub i64 %10, %11
  %13 = sdiv exact i64 %12, 116
  store i64 %13, ptr %5, align 8, !tbaa !388
  %14 = load i64, ptr %5, align 8, !tbaa !388
  %15 = trunc i64 %14 to i32
  call void @llvm.lifetime.end.p0(i64 8, ptr %5) #8
  ret i32 %15
}

; Function Attrs: mustprogress uwtable
define internal void @_ZL21TableSetupColumnFlagsP10ImGuiTableP16ImGuiTableColumni(ptr noundef %0, ptr noundef %1, i32 noundef %2) #0 {
  %4 = alloca ptr, align 8
  %5 = alloca ptr, align 8
  %6 = alloca i32, align 4
  %7 = alloca i32, align 4
  %8 = alloca i32, align 4
  %9 = alloca i32, align 4
  %10 = alloca i32, align 4
  %11 = alloca i32, align 4
  store ptr %0, ptr %4, align 8, !tbaa !166
  store ptr %1, ptr %5, align 8, !tbaa !259
  store i32 %2, ptr %6, align 4, !tbaa !4
  call void @llvm.lifetime.start.p0(i64 4, ptr %7) #8
  %12 = load i32, ptr %6, align 4, !tbaa !4
  store i32 %12, ptr %7, align 4, !tbaa !4
  %13 = load i32, ptr %7, align 4, !tbaa !4
  %14 = and i32 %13, 24
  %15 = icmp eq i32 %14, 0
  br i1 %15, label %16, label %33

16:                                               ; preds = %3
  call void @llvm.lifetime.start.p0(i64 4, ptr %8) #8
  %17 = load ptr, ptr %4, align 8, !tbaa !166
  %18 = getelementptr inbounds nuw %struct.ImGuiTable, ptr %17, i32 0, i32 1
  %19 = load i32, ptr %18, align 4, !tbaa !195
  %20 = and i32 %19, 57344
  store i32 %20, ptr %8, align 4, !tbaa !4
  %21 = load i32, ptr %8, align 4, !tbaa !4
  %22 = icmp eq i32 %21, 8192
  br i1 %22, label %26, label %23

23:                                               ; preds = %16
  %24 = load i32, ptr %8, align 4, !tbaa !4
  %25 = icmp eq i32 %24, 16384
  br i1 %25, label %26, label %29

26:                                               ; preds = %23, %16
  %27 = load i32, ptr %7, align 4, !tbaa !4
  %28 = or i32 %27, 16
  store i32 %28, ptr %7, align 4, !tbaa !4
  br label %32

29:                                               ; preds = %23
  %30 = load i32, ptr %7, align 4, !tbaa !4
  %31 = or i32 %30, 8
  store i32 %31, ptr %7, align 4, !tbaa !4
  br label %32

32:                                               ; preds = %29, %26
  call void @llvm.lifetime.end.p0(i64 4, ptr %8) #8
  br label %34

33:                                               ; preds = %3
  br label %34

34:                                               ; preds = %33, %32
  %35 = load ptr, ptr %4, align 8, !tbaa !166
  %36 = getelementptr inbounds nuw %struct.ImGuiTable, ptr %35, i32 0, i32 1
  %37 = load i32, ptr %36, align 4, !tbaa !195
  %38 = and i32 %37, 1
  %39 = icmp eq i32 %38, 0
  br i1 %39, label %40, label %43

40:                                               ; preds = %34
  %41 = load i32, ptr %7, align 4, !tbaa !4
  %42 = or i32 %41, 32
  store i32 %42, ptr %7, align 4, !tbaa !4
  br label %43

43:                                               ; preds = %40, %34
  %44 = load i32, ptr %7, align 4, !tbaa !4
  %45 = and i32 %44, 1024
  %46 = icmp ne i32 %45, 0
  br i1 %46, label %47, label %54

47:                                               ; preds = %43
  %48 = load i32, ptr %7, align 4, !tbaa !4
  %49 = and i32 %48, 2048
  %50 = icmp ne i32 %49, 0
  br i1 %50, label %51, label %54

51:                                               ; preds = %47
  %52 = load i32, ptr %7, align 4, !tbaa !4
  %53 = or i32 %52, 512
  store i32 %53, ptr %7, align 4, !tbaa !4
  br label %54

54:                                               ; preds = %51, %47, %43
  %55 = load i32, ptr %7, align 4, !tbaa !4
  %56 = and i32 %55, 196608
  %57 = icmp eq i32 %56, 0
  br i1 %57, label %58, label %67

58:                                               ; preds = %54
  %59 = load ptr, ptr %4, align 8, !tbaa !166
  %60 = getelementptr inbounds nuw %struct.ImGuiTable, ptr %59, i32 0, i32 4
  %61 = load ptr, ptr %5, align 8, !tbaa !259
  %62 = call noundef i32 @_ZNK6ImSpanI16ImGuiTableColumnE14index_from_ptrEPKS0_(ptr noundef nonnull align 8 dereferenceable(16) %60, ptr noundef %61)
  %63 = icmp eq i32 %62, 0
  %64 = select i1 %63, i32 65536, i32 131072
  %65 = load i32, ptr %7, align 4, !tbaa !4
  %66 = or i32 %65, %64
  store i32 %66, ptr %7, align 4, !tbaa !4
  br label %67

67:                                               ; preds = %58, %54
  %68 = load i32, ptr %7, align 4, !tbaa !4
  %69 = load ptr, ptr %5, align 8, !tbaa !259
  %70 = getelementptr inbounds nuw %struct.ImGuiTableColumn, ptr %69, i32 0, i32 0
  %71 = load i32, ptr %70, align 4, !tbaa !399
  %72 = and i32 %71, 251658240
  %73 = or i32 %68, %72
  %74 = load ptr, ptr %5, align 8, !tbaa !259
  %75 = getelementptr inbounds nuw %struct.ImGuiTableColumn, ptr %74, i32 0, i32 0
  store i32 %73, ptr %75, align 4, !tbaa !399
  %76 = load ptr, ptr %5, align 8, !tbaa !259
  %77 = getelementptr inbounds nuw %struct.ImGuiTableColumn, ptr %76, i32 0, i32 39
  store i8 0, ptr %77, align 2, !tbaa !465
  %78 = load ptr, ptr %5, align 8, !tbaa !259
  %79 = getelementptr inbounds nuw %struct.ImGuiTableColumn, ptr %78, i32 0, i32 38
  %80 = load i8, ptr %79, align 1
  %81 = and i8 %80, 15
  %82 = or i8 %81, 0
  store i8 %82, ptr %79, align 1
  %83 = load ptr, ptr %5, align 8, !tbaa !259
  %84 = getelementptr inbounds nuw %struct.ImGuiTableColumn, ptr %83, i32 0, i32 38
  %85 = load i8, ptr %84, align 1
  %86 = and i8 %85, -13
  %87 = or i8 %86, 0
  store i8 %87, ptr %84, align 1
  %88 = load ptr, ptr %4, align 8, !tbaa !166
  %89 = getelementptr inbounds nuw %struct.ImGuiTable, ptr %88, i32 0, i32 1
  %90 = load i32, ptr %89, align 4, !tbaa !195
  %91 = and i32 %90, 8
  %92 = icmp ne i32 %91, 0
  br i1 %92, label %93, label %204

93:                                               ; preds = %67
  call void @llvm.lifetime.start.p0(i64 4, ptr %9) #8
  store i32 0, ptr %9, align 4, !tbaa !4
  call void @llvm.lifetime.start.p0(i64 4, ptr %10) #8
  store i32 0, ptr %10, align 4, !tbaa !4
  call void @llvm.lifetime.start.p0(i64 4, ptr %11) #8
  store i32 0, ptr %11, align 4, !tbaa !4
  %94 = load i32, ptr %7, align 4, !tbaa !4
  %95 = and i32 %94, 16384
  %96 = icmp ne i32 %95, 0
  br i1 %96, label %97, label %111

97:                                               ; preds = %93
  %98 = load i32, ptr %7, align 4, !tbaa !4
  %99 = and i32 %98, 1024
  %100 = icmp eq i32 %99, 0
  br i1 %100, label %101, label %111

101:                                              ; preds = %97
  %102 = load i32, ptr %10, align 4, !tbaa !4
  %103 = or i32 %102, 2
  store i32 %103, ptr %10, align 4, !tbaa !4
  %104 = load i32, ptr %9, align 4, !tbaa !4
  %105 = shl i32 %104, 1
  %106 = shl i32 1, %105
  %107 = load i32, ptr %11, align 4, !tbaa !4
  %108 = or i32 %107, %106
  store i32 %108, ptr %11, align 4, !tbaa !4
  %109 = load i32, ptr %9, align 4, !tbaa !4
  %110 = add nsw i32 %109, 1
  store i32 %110, ptr %9, align 4, !tbaa !4
  br label %111

111:                                              ; preds = %101, %97, %93
  %112 = load i32, ptr %7, align 4, !tbaa !4
  %113 = and i32 %112, 32768
  %114 = icmp ne i32 %113, 0
  br i1 %114, label %115, label %129

115:                                              ; preds = %111
  %116 = load i32, ptr %7, align 4, !tbaa !4
  %117 = and i32 %116, 2048
  %118 = icmp eq i32 %117, 0
  br i1 %118, label %119, label %129

119:                                              ; preds = %115
  %120 = load i32, ptr %10, align 4, !tbaa !4
  %121 = or i32 %120, 4
  store i32 %121, ptr %10, align 4, !tbaa !4
  %122 = load i32, ptr %9, align 4, !tbaa !4
  %123 = shl i32 %122, 1
  %124 = shl i32 2, %123
  %125 = load i32, ptr %11, align 4, !tbaa !4
  %126 = or i32 %125, %124
  store i32 %126, ptr %11, align 4, !tbaa !4
  %127 = load i32, ptr %9, align 4, !tbaa !4
  %128 = add nsw i32 %127, 1
  store i32 %128, ptr %9, align 4, !tbaa !4
  br label %129

129:                                              ; preds = %119, %115, %111
  %130 = load i32, ptr %7, align 4, !tbaa !4
  %131 = and i32 %130, 16384
  %132 = icmp eq i32 %131, 0
  br i1 %132, label %133, label %147

133:                                              ; preds = %129
  %134 = load i32, ptr %7, align 4, !tbaa !4
  %135 = and i32 %134, 1024
  %136 = icmp eq i32 %135, 0
  br i1 %136, label %137, label %147

137:                                              ; preds = %133
  %138 = load i32, ptr %10, align 4, !tbaa !4
  %139 = or i32 %138, 2
  store i32 %139, ptr %10, align 4, !tbaa !4
  %140 = load i32, ptr %9, align 4, !tbaa !4
  %141 = shl i32 %140, 1
  %142 = shl i32 1, %141
  %143 = load i32, ptr %11, align 4, !tbaa !4
  %144 = or i32 %143, %142
  store i32 %144, ptr %11, align 4, !tbaa !4
  %145 = load i32, ptr %9, align 4, !tbaa !4
  %146 = add nsw i32 %145, 1
  store i32 %146, ptr %9, align 4, !tbaa !4
  br label %147

147:                                              ; preds = %137, %133, %129
  %148 = load i32, ptr %7, align 4, !tbaa !4
  %149 = and i32 %148, 32768
  %150 = icmp eq i32 %149, 0
  br i1 %150, label %151, label %165

151:                                              ; preds = %147
  %152 = load i32, ptr %7, align 4, !tbaa !4
  %153 = and i32 %152, 2048
  %154 = icmp eq i32 %153, 0
  br i1 %154, label %155, label %165

155:                                              ; preds = %151
  %156 = load i32, ptr %10, align 4, !tbaa !4
  %157 = or i32 %156, 4
  store i32 %157, ptr %10, align 4, !tbaa !4
  %158 = load i32, ptr %9, align 4, !tbaa !4
  %159 = shl i32 %158, 1
  %160 = shl i32 2, %159
  %161 = load i32, ptr %11, align 4, !tbaa !4
  %162 = or i32 %161, %160
  store i32 %162, ptr %11, align 4, !tbaa !4
  %163 = load i32, ptr %9, align 4, !tbaa !4
  %164 = add nsw i32 %163, 1
  store i32 %164, ptr %9, align 4, !tbaa !4
  br label %165

165:                                              ; preds = %155, %151, %147
  %166 = load ptr, ptr %4, align 8, !tbaa !166
  %167 = getelementptr inbounds nuw %struct.ImGuiTable, ptr %166, i32 0, i32 1
  %168 = load i32, ptr %167, align 4, !tbaa !195
  %169 = and i32 %168, 134217728
  %170 = icmp ne i32 %169, 0
  br i1 %170, label %174, label %171

171:                                              ; preds = %165
  %172 = load i32, ptr %9, align 4, !tbaa !4
  %173 = icmp eq i32 %172, 0
  br i1 %173, label %174, label %179

174:                                              ; preds = %171, %165
  %175 = load i32, ptr %10, align 4, !tbaa !4
  %176 = or i32 %175, 1
  store i32 %176, ptr %10, align 4, !tbaa !4
  %177 = load i32, ptr %9, align 4, !tbaa !4
  %178 = add nsw i32 %177, 1
  store i32 %178, ptr %9, align 4, !tbaa !4
  br label %179

179:                                              ; preds = %174, %171
  %180 = load i32, ptr %11, align 4, !tbaa !4
  %181 = trunc i32 %180 to i8
  %182 = load ptr, ptr %5, align 8, !tbaa !259
  %183 = getelementptr inbounds nuw %struct.ImGuiTableColumn, ptr %182, i32 0, i32 39
  store i8 %181, ptr %183, align 2, !tbaa !465
  %184 = load i32, ptr %10, align 4, !tbaa !4
  %185 = trunc i32 %184 to i8
  %186 = load ptr, ptr %5, align 8, !tbaa !259
  %187 = getelementptr inbounds nuw %struct.ImGuiTableColumn, ptr %186, i32 0, i32 38
  %188 = load i8, ptr %187, align 1
  %189 = and i8 %185, 15
  %190 = shl i8 %189, 4
  %191 = and i8 %188, 15
  %192 = or i8 %191, %190
  store i8 %192, ptr %187, align 1
  %193 = load i32, ptr %9, align 4, !tbaa !4
  %194 = trunc i32 %193 to i8
  %195 = load ptr, ptr %5, align 8, !tbaa !259
  %196 = getelementptr inbounds nuw %struct.ImGuiTableColumn, ptr %195, i32 0, i32 38
  %197 = load i8, ptr %196, align 1
  %198 = and i8 %194, 3
  %199 = shl i8 %198, 2
  %200 = and i8 %197, -13
  %201 = or i8 %200, %199
  store i8 %201, ptr %196, align 1
  %202 = load ptr, ptr %4, align 8, !tbaa !166
  %203 = load ptr, ptr %5, align 8, !tbaa !259
  call void @_ZN5ImGui27TableFixColumnSortDirectionEP10ImGuiTableP16ImGuiTableColumn(ptr noundef %202, ptr noundef %203)
  call void @llvm.lifetime.end.p0(i64 4, ptr %11) #8
  call void @llvm.lifetime.end.p0(i64 4, ptr %10) #8
  call void @llvm.lifetime.end.p0(i64 4, ptr %9) #8
  br label %204

204:                                              ; preds = %179, %67
  call void @llvm.lifetime.end.p0(i64 4, ptr %7) #8
  ret void
}