; Function Attrs: mustprogress nofree norecurse nosync nounwind willreturn memory(argmem: readwrite) uwtable
define internal fastcc void @_ZL21TableSetupColumnFlagsP10ImGuiTableP16ImGuiTableColumni(ptr noundef captures(none) %0, ptr noundef nonnull %1, i32 noundef %2) unnamed_addr #10 {
  %4 = and i32 %2, 24
  %5 = icmp eq i32 %4, 0
  %6 = getelementptr inbounds nuw i8, ptr %0, i64 4
  %7 = load i32, ptr %6, align 4, !tbaa !203
  br i1 %5, label %8, label %._crit_edge

8:                                                ; preds = %3
  %9 = trunc i32 %7 to i16
  %trunc = and i16 %9, -8192
  switch i16 %trunc, label %12 [
    i16 16384, label %10
    i16 8192, label %10
  ]

10:                                               ; preds = %8, %8
  %11 = or disjoint i32 %2, 16
  br label %._crit_edge

12:                                               ; preds = %8
  %13 = or disjoint i32 %2, 8
  br label %._crit_edge

._crit_edge:                                      ; preds = %3, %10, %12
  %.171 = phi i32 [ %11, %10 ], [ %13, %12 ], [ %2, %3 ]
  %14 = getelementptr inbounds nuw i8, ptr %0, i64 4
  %15 = shl i32 %7, 5
  %16 = and i32 %15, 32
  %17 = xor i32 %16, 32
  %spec.select = or i32 %17, %.171
  %18 = and i32 %.171, 3072
  %or.cond.not = icmp eq i32 %18, 3072
  %19 = or i32 %spec.select, 512
  %.373 = select i1 %or.cond.not, i32 %19, i32 %spec.select
  %20 = and i32 %.373, 196608
  %21 = icmp eq i32 %20, 0
  br i1 %21, label %22, label %33

22:                                               ; preds = %._crit_edge
  %23 = getelementptr inbounds nuw i8, ptr %0, i64 24
  %24 = load ptr, ptr %23, align 8, !tbaa !271
  %25 = ptrtoint ptr %1 to i64
  %26 = ptrtoint ptr %24 to i64
  %27 = sub i64 %25, %26
  %28 = sdiv exact i64 %27, 116
  %29 = and i64 %28, 4294967295
  %30 = icmp eq i64 %29, 0
  %31 = select i1 %30, i32 65536, i32 131072
  %32 = or disjoint i32 %31, %.373
  br label %33

33:                                               ; preds = %22, %._crit_edge
  %.474 = phi i32 [ %32, %22 ], [ %.373, %._crit_edge ]
  %34 = load i32, ptr %1, align 4, !tbaa !352
  %35 = and i32 %34, 251658240
  %36 = or i32 %35, %.474
  store i32 %36, ptr %1, align 4, !tbaa !352
  %37 = getelementptr inbounds nuw i8, ptr %1, i64 114
  store i8 0, ptr %37, align 2, !tbaa !430
  %38 = getelementptr inbounds nuw i8, ptr %1, i64 113
  %39 = load i8, ptr %38, align 1
  %40 = and i8 %39, 3
  store i8 %40, ptr %38, align 1
  %41 = load i32, ptr %14, align 4, !tbaa !203
  %42 = and i32 %41, 8
  %.not76 = icmp eq i32 %42, 0
  br i1 %.not76, label %_ZN5ImGui27TableFixColumnSortDirectionEP10ImGuiTableP16ImGuiTableColumn.exit, label %43

43:                                               ; preds = %33
  %44 = and i32 %.474, 17408
  %or.cond80 = icmp eq i32 %44, 16384
  %.061 = select i1 %or.cond80, i32 2, i32 0
  %.0 = zext i1 %or.cond80 to i32
  %45 = and i32 %.474, 34816
  %or.cond82 = icmp eq i32 %45, 32768
  %46 = or disjoint i32 %.061, 4
  %47 = select i1 %or.cond80, i32 8, i32 2
  %48 = select i1 %or.cond80, i32 2, i32 1
  %.166 = select i1 %or.cond82, i32 %48, i32 %.0
  %.162 = select i1 %or.cond82, i32 %46, i32 %.061
  %49 = select i1 %or.cond82, i32 %47, i32 0
  %.1 = or disjoint i32 %49, %.0
  %or.cond84 = icmp eq i32 %44, 0
  br i1 %or.cond84, label %50, label %56

50:                                               ; preds = %43
  %51 = or i32 %.162, 2
  %52 = shl nuw nsw i32 %.166, 1
  %53 = shl nuw nsw i32 1, %52
  %54 = or i32 %53, %.1
  %55 = add nuw nsw i32 %.166, 1
  br label %56

56:                                               ; preds = %50, %43
  %.267 = phi i32 [ %55, %50 ], [ %.166, %43 ]
  %.263 = phi i32 [ %51, %50 ], [ %.162, %43 ]
  %.2 = phi i32 [ %54, %50 ], [ %.1, %43 ]
  %or.cond86 = icmp eq i32 %45, 0
  br i1 %or.cond86, label %57, label %63

57:                                               ; preds = %56
  %58 = or i32 %.263, 4
  %59 = shl nuw nsw i32 %.267, 1
  %60 = shl nuw nsw i32 2, %59
  %61 = or i32 %.2, %60
  %62 = add nuw nsw i32 %.267, 1
  br label %63

63:                                               ; preds = %57, %56
  %.368 = phi i32 [ %62, %57 ], [ %.267, %56 ]
  %.364 = phi i32 [ %58, %57 ], [ %.263, %56 ]
  %.3 = phi i32 [ %61, %57 ], [ %.2, %56 ]
  %64 = and i32 %41, 134217728
  %65 = icmp ne i32 %64, 0
  %66 = icmp eq i32 %.368, 0
  %or.cond3 = select i1 %65, i1 true, i1 %66
  %67 = zext i1 %or.cond3 to i32
  %.469 = add nuw nsw i32 %.368, %67
  %.4 = or i32 %.364, %67
  %68 = trunc i32 %.3 to i8
  store i8 %68, ptr %37, align 2, !tbaa !430
  %69 = trunc nuw nsw i32 %.4 to i8
  %70 = shl nuw nsw i8 %69, 4
  %71 = trunc nuw nsw i32 %.469 to i8
  %72 = shl nuw nsw i8 %71, 2
  %73 = and i8 %72, 12
  %74 = or disjoint i8 %73, %70
  %75 = or disjoint i8 %74, %40
  store i8 %75, ptr %38, align 1
  %76 = getelementptr inbounds nuw i8, ptr %1, i64 94
  %77 = load i16, ptr %76, align 2, !tbaa !338
  %78 = icmp eq i16 %77, -1
  br i1 %78, label %_ZN5ImGui27TableFixColumnSortDirectionEP10ImGuiTableP16ImGuiTableColumn.exit, label %79

79:                                               ; preds = %63
  %80 = zext nneg i8 %40 to i32
  %81 = shl nuw nsw i32 1, %80
  %82 = and i32 %81, %.4
  %.not.i = icmp eq i32 %82, 0
  br i1 %.not.i, label %83, label %_ZN5ImGui27TableFixColumnSortDirectionEP10ImGuiTableP16ImGuiTableColumn.exit

83:                                               ; preds = %79
  %84 = and i8 %68, 3
  %85 = or disjoint i8 %74, %84
  store i8 %85, ptr %38, align 1
  %86 = getelementptr inbounds nuw i8, ptr %0, i64 569
  store i8 1, ptr %86, align 1, !tbaa !288
  br label %_ZN5ImGui27TableFixColumnSortDirectionEP10ImGuiTableP16ImGuiTableColumn.exit

_ZN5ImGui27TableFixColumnSortDirectionEP10ImGuiTableP16ImGuiTableColumn.exit: ; preds = %83, %79, %63, %33
  ret void
}